(dp1
S'columba'
p2
F0.9780254816122822
sS'argouml'
p3
F0.95733312139488103
sS'emf'
p4
F0.92230888208773487
sS'jfreechart'
p5
F0.91025048925329821
sS'jruby'
p6
F0.89223787615688943
sS'ant'
p7
F0.90174890211817837
sS'jEdit'
p8
F0.92315677070609536
sS'GA'
p9
F0.82854900737307235
sS'sql'
p10
F0.90944815227667164
sS'jmeter'
p11
F0.86300617754313391
s.