(dp1
S'columba'
p2
F0.97638229775962915
sS'argouml'
p3
F0.96181592534060445
sS'emf'
p4
F0.92126567282061411
sS'jfreechart'
p5
F0.83311295846408207
sS'jruby'
p6
F0.90187966559853916
sS'ant'
p7
F0.91723612292297674
sS'jEdit'
p8
F0.92295464416033624
sS'GA'
p9
F0.82835799513555497
sS'sql'
p10
F0.90106889766129794
sS'jmeter'
p11
F0.85397798399825831
s.