(dp1
S'columba'
p2
F0.97770052361157089
sS'argouml'
p3
F0.96072923130534726
sS'emf'
p4
F0.92440517326488303
sS'jfreechart'
p5
F0.90863510982893003
sS'jruby'
p6
F0.90322944451406162
sS'ant'
p7
F0.90817704370141594
sS'jEdit'
p8
F0.91760144135131039
sS'GA'
p9
F0.83631047129086067
sS'sql'
p10
F0.90468109446958345
sS'jmeter'
p11
F0.87321000925270775
s.