(dp1
S'columba'
p2
F0.97129946412586299
sS'argouml'
p3
F0.91402584222608729
sS'emf'
p4
F0.91076118076809165
sS'jfreechart'
p5
F0.76116952626784085
sS'jruby'
p6
F0.91747551959327611
sS'ant'
p7
F0.9011023578970403
sS'jEdit'
p8
F0.94714487771586331
sS'GA'
p9
F0.82869545008850232
sS'sql'
p10
F0.90525961036466041
sS'jmeter'
p11
F0.85366910684156094
s.